; Function Attrs: mustprogress uwtable
define void @_ZN5faiss16BufferedIOWriterD0Ev(ptr noundef nonnull align 8 dereferenceable(104) %0) unnamed_addr #2 align 2 personality ptr @__gxx_personality_v0 {
  invoke void @_ZN5faiss16BufferedIOWriterD1Ev(ptr noundef nonnull align 8 dereferenceable(104) %0)
          to label %2 unwind label %3

2:                                                ; preds = %1
  tail call void @_ZdlPv(ptr noundef nonnull %0) #24
  ret void

3:                                                ; preds = %1
  %4 = landingpad { ptr, i32 }
          cleanup
  tail call void @_ZdlPv(ptr noundef nonnull %0) #24
  resume { ptr, i32 } %4
}